target datalayout = "e-m:e-p270:32:32-p271:32:32-p272:64:64-i64:64-i128:128-f80:128-n8:16:32:64-S128"
target triple = "x86_64-pc-linux-gnu"

%"class.cv::utils::trace::details::Region" = type <{ ptr, i32, [4 x i8] }>
%"class.perf::TestBase" = type { %"class.testing::Test", %"class.std::vector", %"class.std::vector", i32, %"class.std::vector.0", i64, i64, i64, i32, i32, i32, i32, i32, [4 x i8], %"struct.perf::performance_metrics", i8, %"class.perf::TestBase::_declareHelper" }
%"class.testing::Test" = type { ptr, %"class.testing::internal::scoped_ptr" }
%"class.testing::internal::scoped_ptr" = type { ptr }
%"class.std::vector" = type { %"struct.std::_Vector_base" }
%"struct.std::_Vector_base" = type { %"struct.std::_Vector_base<std::pair<int, cv::Size_<int>>, std::allocator<std::pair<int, cv::Size_<int>>>>::_Vector_impl" }
%"struct.std::_Vector_base<std::pair<int, cv::Size_<int>>, std::allocator<std::pair<int, cv::Size_<int>>>>::_Vector_impl" = type { %"struct.std::_Vector_base<std::pair<int, cv::Size_<int>>, std::allocator<std::pair<int, cv::Size_<int>>>>::_Vector_impl_data" }
%"struct.std::_Vector_base<std::pair<int, cv::Size_<int>>, std::allocator<std::pair<int, cv::Size_<int>>>>::_Vector_impl_data" = type { ptr, ptr, ptr }
%"class.std::vector.0" = type { %"struct.std::_Vector_base.1" }
%"struct.std::_Vector_base.1" = type { %"struct.std::_Vector_base<long, std::allocator<long>>::_Vector_impl" }
%"struct.std::_Vector_base<long, std::allocator<long>>::_Vector_impl" = type { %"struct.std::_Vector_base<long, std::allocator<long>>::_Vector_impl_data" }
%"struct.std::_Vector_base<long, std::allocator<long>>::_Vector_impl_data" = type { ptr, ptr, ptr }
%"struct.perf::performance_metrics" = type <{ i64, i64, i32, i32, double, double, double, double, double, double, double, i32, [4 x i8] }>
%"class.perf::TestBase::_declareHelper" = type { ptr }
%"class.opencv_test::ocl::OCL_IntegralFixture_Integral1_Integral1_Test" = type <{ %"class.opencv_test::ocl::OCL_IntegralFixture_Integral1", i8, [7 x i8] }>
%"class.opencv_test::ocl::OCL_IntegralFixture_Integral1" = type { %"class.perf::TestBaseWithParam.119" }
%"class.perf::TestBaseWithParam.119" = type { %"class.perf::TestBase", %"class.testing::WithParamInterface.120" }
%"class.testing::WithParamInterface.120" = type { ptr }

@_ZTIN6cvtest7details21SkipTestExceptionBaseE = linkonce_odr hidden constant { ptr, ptr, ptr } { ptr getelementptr inbounds (ptr, ptr @_ZTVN10__cxxabiv120__si_class_type_infoE, i64 2), ptr @_ZTSN6cvtest7details21SkipTestExceptionBaseE, ptr @_ZTIN2cv9ExceptionE }, comdat, align 8
@_ZN11opencv_test30required_opencv_test_namespaceE = external global i8, align 1
@.str.23 = private unnamed_addr constant [17 x i8] c"[     SKIP ] %s\0A\00", align 1

; Function Attrs: mustprogress uwtable
define hidden void @_ZN11opencv_test3ocl44OCL_IntegralFixture_Integral1_Integral1_Test8TestBodyEv(ptr noundef nonnull align 8 dereferenceable(257) %0) unnamed_addr #6 align 2 personality ptr @__gxx_personality_v0 {
  %2 = alloca ptr, align 8
  %3 = alloca %"class.cv::utils::trace::details::Region", align 8
  %4 = alloca i32, align 4
  %5 = alloca ptr, align 8
  %6 = alloca i32, align 4
  %7 = alloca ptr, align 8
  store ptr %0, ptr %2, align 8, !tbaa !217
  %8 = load ptr, ptr %2, align 8
  call void @llvm.lifetime.start.p0(i64 16, ptr %3) #3
  call void @_ZN2cv5utils5trace7details6RegionC1ERKNS3_21LocationStaticStorageE(ptr noundef nonnull align 8 dereferenceable(12) %3, ptr noundef nonnull align 8 dereferenceable(32) @_ZZN11opencv_test3ocl44OCL_IntegralFixture_Integral1_Integral1_Test8TestBodyEvE25__cv_trace_location_fn229)
  store i8 1, ptr @_ZN11opencv_test30required_opencv_test_namespaceE, align 1, !tbaa !16
  %9 = getelementptr inbounds nuw %"class.opencv_test::ocl::OCL_IntegralFixture_Integral1_Integral1_Test", ptr %8, i32 0, i32 1
  %10 = load i8, ptr %9, align 8, !tbaa !219, !range !43, !noundef !44
  %11 = trunc i8 %10 to i1
  br i1 %11, label %12, label %13

12:                                               ; preds = %1
  store i32 1, ptr %4, align 4
  br label %40

13:                                               ; preds = %1
  invoke void @_ZN6cvtest9testSetUpEv()
          to label %14 unwind label %20

14:                                               ; preds = %13
  %15 = load ptr, ptr %8, align 8, !tbaa !45
  %16 = getelementptr inbounds ptr, ptr %15, i64 7
  %17 = load ptr, ptr %16, align 8
  invoke void %17(ptr noundef nonnull align 8 dereferenceable(257) %8)
          to label %18 unwind label %20

18:                                               ; preds = %14
  invoke void @_ZN6cvtest12testTearDownEv()
          to label %19 unwind label %20

19:                                               ; preds = %18
  br label %39

20:                                               ; preds = %18, %14, %13
  %21 = landingpad { ptr, i32 }
          cleanup
          catch ptr @_ZTIN6cvtest7details21SkipTestExceptionBaseE
  %22 = extractvalue { ptr, i32 } %21, 0
  store ptr %22, ptr %5, align 8
  %23 = extractvalue { ptr, i32 } %21, 1
  store i32 %23, ptr %6, align 4
  br label %24

24:                                               ; preds = %20
  %25 = load i32, ptr %6, align 4
  %26 = call i32 @llvm.eh.typeid.for.p0(ptr @_ZTIN6cvtest7details21SkipTestExceptionBaseE) #3
  %27 = icmp eq i32 %25, %26
  br i1 %27, label %28, label %53

28:                                               ; preds = %24
  call void @llvm.lifetime.start.p0(i64 8, ptr %7) #3
  %29 = load ptr, ptr %5, align 8
  %30 = call ptr @__cxa_begin_catch(ptr %29) #3
  store ptr %30, ptr %7, align 8
  %31 = load ptr, ptr %7, align 8, !tbaa !47
  %32 = load ptr, ptr %31, align 8, !tbaa !45
  %33 = getelementptr inbounds ptr, ptr %32, i64 2
  %34 = load ptr, ptr %33, align 8
  %35 = call noundef ptr %34(ptr noundef nonnull align 8 dereferenceable(148) %31) #3
  %36 = invoke i32 (ptr, ...) @printf(ptr noundef @.str.23, ptr noundef %35)
          to label %37 unwind label %43

37:                                               ; preds = %28
  invoke void @__cxa_end_catch()
          to label %38 unwind label %47

38:                                               ; preds = %37
  call void @llvm.lifetime.end.p0(i64 8, ptr %7) #3
  br label %39

39:                                               ; preds = %38, %19
  store i32 0, ptr %4, align 4
  br label %40

40:                                               ; preds = %39, %12
  call void @_ZN2cv5utils5trace7details6RegionD2Ev(ptr noundef nonnull align 8 dereferenceable(12) %3) #3
  call void @llvm.lifetime.end.p0(i64 16, ptr %3) #3
  %41 = load i32, ptr %4, align 4
  switch i32 %41, label %62 [
    i32 0, label %42
    i32 1, label %42
  ]

42:                                               ; preds = %40, %40
  ret void

43:                                               ; preds = %28
  %44 = landingpad { ptr, i32 }
          cleanup
  %45 = extractvalue { ptr, i32 } %44, 0
  store ptr %45, ptr %5, align 8
  %46 = extractvalue { ptr, i32 } %44, 1
  store i32 %46, ptr %6, align 4
  invoke void @__cxa_end_catch()
          to label %51 unwind label %59

47:                                               ; preds = %37
  %48 = landingpad { ptr, i32 }
          cleanup
  %49 = extractvalue { ptr, i32 } %48, 0
  store ptr %49, ptr %5, align 8
  %50 = extractvalue { ptr, i32 } %48, 1
  store i32 %50, ptr %6, align 4
  br label %52

51:                                               ; preds = %43
  br label %52

52:                                               ; preds = %51, %47
  call void @llvm.lifetime.end.p0(i64 8, ptr %7) #3
  br label %53

53:                                               ; preds = %52, %24
  call void @_ZN2cv5utils5trace7details6RegionD2Ev(ptr noundef nonnull align 8 dereferenceable(12) %3) #3
  call void @llvm.lifetime.end.p0(i64 16, ptr %3) #3
  br label %54

54:                                               ; preds = %53
  %55 = load ptr, ptr %5, align 8
  %56 = load i32, ptr %6, align 4
  %57 = insertvalue { ptr, i32 } poison, ptr %55, 0
  %58 = insertvalue { ptr, i32 } %57, i32 %56, 1
  resume { ptr, i32 } %58

59:                                               ; preds = %43
  %60 = landingpad { ptr, i32 }
          catch ptr null
  %61 = extractvalue { ptr, i32 } %60, 0
  call void @__clang_call_terminate(ptr %61) #28
  unreachable

62:                                               ; preds = %40
  unreachable
}